; Function Attrs: mustprogress nounwind willreturn uwtable
define noundef ptr @_ZN10duckdb_hll11sdsgrowzeroEPcm(ptr noundef captures(address, ret: address, provenance) %0, i64 noundef %1) local_unnamed_addr #11 {
  %3 = getelementptr inbounds i8, ptr %0, i64 -1
  %4 = load i8, ptr %3, align 1, !tbaa !20
  %5 = zext i8 %4 to i32
  %6 = and i32 %5, 7
  switch i32 %6, label %_ZN10duckdb_hllL6sdslenEPc.exit [
    i32 0, label %7
    i32 1, label %10
    i32 2, label %14
    i32 3, label %18
    i32 4, label %22
  ]

7:                                                ; preds = %2
  %8 = lshr i32 %5, 3
  %9 = zext nneg i32 %8 to i64
  br label %_ZN10duckdb_hllL6sdslenEPc.exit

10:                                               ; preds = %2
  %11 = getelementptr inbounds i8, ptr %0, i64 -4
  %12 = load i8, ptr %11, align 1, !tbaa !3
  %13 = zext i8 %12 to i64
  br label %_ZN10duckdb_hllL6sdslenEPc.exit

14:                                               ; preds = %2
  %15 = getelementptr inbounds i8, ptr %0, i64 -6
  %16 = load i16, ptr %15, align 1, !tbaa !8
  %17 = zext i16 %16 to i64
  br label %_ZN10duckdb_hllL6sdslenEPc.exit

18:                                               ; preds = %2
  %19 = getelementptr inbounds i8, ptr %0, i64 -10
  %20 = load i32, ptr %19, align 1, !tbaa !12
  %21 = zext i32 %20 to i64
  br label %_ZN10duckdb_hllL6sdslenEPc.exit

22:                                               ; preds = %2
  %23 = getelementptr inbounds i8, ptr %0, i64 -18
  %24 = load i64, ptr %23, align 1, !tbaa !16
  br label %_ZN10duckdb_hllL6sdslenEPc.exit

_ZN10duckdb_hllL6sdslenEPc.exit:                  ; preds = %2, %7, %10, %14, %18, %22
  %.0.i = phi i64 [ %24, %22 ], [ %21, %18 ], [ %17, %14 ], [ %13, %10 ], [ %9, %7 ], [ 0, %2 ]
  %.not = icmp ugt i64 %1, %.0.i
  br i1 %.not, label %25, label %_ZN10duckdb_hllL9sdssetlenEPcm.exit

25:                                               ; preds = %_ZN10duckdb_hllL6sdslenEPc.exit
  %26 = sub nuw i64 %1, %.0.i
  %27 = tail call noundef ptr @_ZN10duckdb_hll14sdsMakeRoomForEPcm(ptr noundef nonnull %0, i64 noundef %26)
  %28 = icmp eq ptr %27, null
  br i1 %28, label %_ZN10duckdb_hllL9sdssetlenEPcm.exit, label %29

29:                                               ; preds = %25
  %30 = getelementptr inbounds nuw i8, ptr %27, i64 %.0.i
  %31 = add i64 %26, 1
  tail call void @llvm.memset.p0.i64(ptr nonnull align 1 %30, i8 0, i64 %31, i1 false)
  %32 = getelementptr inbounds i8, ptr %27, i64 -1
  %33 = load i8, ptr %32, align 1, !tbaa !20
  %34 = and i8 %33, 7
  switch i8 %34, label %_ZN10duckdb_hllL9sdssetlenEPcm.exit [
    i8 0, label %35
    i8 1, label %37
    i8 2, label %40
    i8 3, label %43
    i8 4, label %46
  ]

35:                                               ; preds = %29
  %.tr.i = trunc i64 %1 to i8
  %36 = shl i8 %.tr.i, 3
  store i8 %36, ptr %32, align 1, !tbaa !20
  br label %_ZN10duckdb_hllL9sdssetlenEPcm.exit

37:                                               ; preds = %29
  %38 = trunc i64 %1 to i8
  %39 = getelementptr inbounds i8, ptr %27, i64 -4
  store i8 %38, ptr %39, align 1, !tbaa !3
  br label %_ZN10duckdb_hllL9sdssetlenEPcm.exit

40:                                               ; preds = %29
  %41 = trunc i64 %1 to i16
  %42 = getelementptr inbounds i8, ptr %27, i64 -6
  store i16 %41, ptr %42, align 1, !tbaa !8
  br label %_ZN10duckdb_hllL9sdssetlenEPcm.exit

43:                                               ; preds = %29
  %44 = trunc i64 %1 to i32
  %45 = getelementptr inbounds i8, ptr %27, i64 -10
  store i32 %44, ptr %45, align 1, !tbaa !12
  br label %_ZN10duckdb_hllL9sdssetlenEPcm.exit

46:                                               ; preds = %29
  %47 = getelementptr inbounds i8, ptr %27, i64 -18
  store i64 %1, ptr %47, align 1, !tbaa !16
  br label %_ZN10duckdb_hllL9sdssetlenEPcm.exit

_ZN10duckdb_hllL9sdssetlenEPcm.exit:              ; preds = %46, %43, %40, %37, %35, %29, %25, %_ZN10duckdb_hllL6sdslenEPc.exit
  %.0 = phi ptr [ %0, %_ZN10duckdb_hllL6sdslenEPc.exit ], [ null, %25 ], [ %27, %29 ], [ %27, %35 ], [ %27, %37 ], [ %27, %40 ], [ %27, %43 ], [ %27, %46 ]
  ret ptr %.0
}